******************************************************************************
               TMS320C6x Linker PC v7.4.4                      
******************************************************************************
>> Linked Sat May 25 16:43:53 2019

OUTPUT FILE NAME:   <Proyecto_DSK.out>
ENTRY POINT SYMBOL: "_c_int00"  address: 00010300


MEMORY CONFIGURATION

         name            origin    length      used     unused   attr    fill
----------------------  --------  ---------  --------  --------  ----  --------
  IVECS                 00000000   00000220  00000200  00000020  RWIX
  IRAM                  00000220   0002fde0  00011894  0001e54c  RWIX
  SDRAM                 80000000   01000000  00e0000c  001ffff4  RWIX
  FLASH                 90000000   00020000  00000000  00020000  RWIX


SECTION ALLOCATION MAP

 output                                  attributes/
section   page    origin      length       input sections
--------  ----  ----------  ----------   ----------------
.vecs      0    00000000    00000200     
                  00000000    00000200     Vectors_intr.obj (.vecs)

$BRID      0    00000000    00000154     COPY SECTION
                  00000000    00000078     csl6713.lib : csl_irq.obj ($BRID)
                  00000078    0000007c                 : csl_mcbsp.obj ($BRID)
                  000000f4    00000060                 : csl_timer.obj ($BRID)

.text      0    00000220    000105a0     
                  00000220    00004f40     ff.obj (.text)
                  00005160    00000fa0     Resp_impulso.obj (.text)
                  00006100    00000ec0     sdmm.obj (.text)
                  00006fc0    00000860     main.obj (.text)
                  00007820    00000720     SD.obj (.text)
                  00007f40    00000720     rts6700.lib : divd.obj (.text:__divd)
                  00008660    000006c0                 : _printfi.obj (.text:__getarg_diouxp)
                  00008d20    000005a0     Inicializaciones.obj (.text)
                  000092c0    000005a0     rts6700.lib : _printfi.obj (.text:__setfield)
                  00009860    00000560                 : _printfi.obj (.text:__printfi)
                  00009dc0    00000420                 : _printfi.obj (.text:_fcvt)
                  0000a1e0    00000420     dsk6713.obj (.text)
                  0000a600    00000400     rts6700.lib : _printfi.obj (.text:__pproc_fge)
                  0000aa00    00000400                 : _printfi.obj (.text:_ecvt)
                  0000ae00    00000380                 : imath64.obj (.text:__divull)
                  0000b180    00000360                 : _printfi.obj (.text:__pconv_e)
                  0000b4e0    00000360                 : _printfi.obj (.text:__pproc_fwp)
                  0000b840    00000360                 : cos.obj (.text:_cos)
                  0000bba0    00000340                 : divf.obj (.text:__divf)
                  0000bee0    00000340                 : sin.obj (.text:_sin)
                  0000c220    00000300                 : _printfi.obj (.text:__pproc_diouxp)
                  0000c520    00000300     dsk6713_aic23_opencodec.obj (.text)
                  0000c820    000002c0     rts6700.lib : _printfi.obj (.text:__pconv_g)
                  0000cae0    000002c0                 : _printfi.obj (.text:__pproc_str)
                  0000cda0    00000280     main.obj (.text:retain)
                  0000d020    00000260     rts6700.lib : imath40.obj (.text:__divul)
                  0000d280    00000260                 : exp.obj (.text:_exp)
                  0000d4e0    00000260                 : log.obj (.text:_log)
                  0000d740    00000240                 : _printfi.obj (.text:__mcpy)
                  0000d980    00000240                 : memcpy62.obj (.text:_memcpy)
                  0000dbc0    000001a0     csl6713.lib : csl_irq.obj (.text:_IRQ_map)
                  0000dd60    000001a0     rts6700.lib : _printfi.obj (.text:__ltostr)
                  0000df00    000001a0                 : _printfi.obj (.text:__pproc_fflags)
                  0000e0a0    00000180     csl6713.lib : csl_mcbsp.obj (.text:_MCBSP_reset)
                  0000e220    00000180     rts6700.lib : ldexp.obj (.text:_ldexp)
                  0000e3a0    00000180     dsk6713_aic23_registers.obj (.text)
                  0000e520    00000180     dsk6713_led.obj (.text)
                  0000e6a0    00000160     csl6713.lib : csl_timer.obj (.text:_TIMER_open)
                  0000e800    00000140     rts6700.lib : frcmpyd_div.obj (.text:__frcmpyd_div)
                  0000e940    00000140                 : strasg.obj (.text:__strasgi)
                  0000ea80    00000140                 : atoi.obj (.text:_atoi)
                  0000ebc0    00000140                 : frexp.obj (.text:_frexp)
                  0000ed00    00000140                 : sqrt.obj (.text:_sqrt)
                  0000ee40    00000120     Codec.obj (.text)
                  0000ef60    00000120     csl6713.lib : csl_timer.obj (.text:_TIMER_reset)
                  0000f080    00000120     rts6700.lib : ltoa.obj (.text:_ltoa)
                  0000f1a0    00000120                 : memset.obj (.text:_memset)
                  0000f2c0    00000100     csl6713.lib : csl_mcbsp.obj (.text:_MCBSP_start)
                  0000f3c0    00000100     rts6700.lib : autoinit.obj (.text:__auto_init)
                  0000f4c0    00000100                 : _printfi.obj (.text:__div)
                  0000f5c0    00000100                 : imath40.obj (.text:__divli)
                  0000f6c0    00000100                 : _printfi.obj (.text:__pconv_f)
                  0000f7c0    000000e0     csl6713.lib : csl_mcbsp.obj (.text:_MCBSP_open)
                  0000f8a0    000000e0     rts6700.lib : _printfi.obj (.text:__ecpy)
                  0000f980    000000e0                 : _printfi.obj (.text:__fcpy)
                  0000fa60    000000e0                 : exit.obj (.text:_exit)
                  0000fb40    000000e0                 : modf.obj (.text:_modf)
                  0000fc20    000000c0                 : divu.obj (.text:__divu)
                  0000fce0    000000c0                 : round.obj (.text:__nround)
                  0000fda0    000000c0                 : cpy_tbl.obj (.text:_copy_in)
                  0000fe60    000000a0                 : fixdli.obj (.text:__fixdli)
                  0000ff00    000000a0                 : mpyll.obj (.text:__mpyll)
                  0000ffa0    000000a0                 : imath40.obj (.text:__remli)
                  00010040    000000a0     csl6713.lib : csl_irq.obj (.text:_setMux)
                  000100e0    000000a0     dsk6713_aic23_setfreq.obj (.text)
                  00010180    00000080     rts6700.lib : cpp_init.obj (.text:___TI_cpp_init)
                  00010200    00000080                 : fltlid.obj (.text:__fltlid)
                  00010280    00000080                 : llshift.obj (.text:__llshl)
                  00010300    00000080                 : boot.obj (.text:_c_int00)
                  00010380    00000080                 : memccpy.obj (.text:_memccpy)
                  00010400    00000080                 : sprintf.obj (.text:_sprintf)
                  00010480    00000060                 : isinf.obj (.text:___isinf)
                  000104e0    00000060                 : llshift.obj (.text:__llshru)
                  00010540    00000060                 : sprintf.obj (.text:__outs)
                  000105a0    00000060                 : imath64.obj (.text:__subcull)
                  00010600    00000060     dsk6713_dip.obj (.text)
                  00010660    00000040     rts6700.lib : _printfi.obj (.text:___isnan)
                  000106a0    00000040                 : args_main.obj (.text:__args_main)
                  000106e0    00000040                 : trunc.obj (.text:__trunc)
                  00010720    00000020     Vectors_intr.obj (.text)
                  00010740    00000020     rts6700.lib : negll.obj (.text:__negll)
                  00010760    00000020                 : sprintf.obj (.text:__outc)
                  00010780    00000020                 : exit.obj (.text:_abort)
                  000107a0    00000020     csl6713.lib : csl_irq.obj (.text)

.bss       0    00000220    00000000     UNINITIALIZED

.stack     0    000107c0    00000800     UNINITIALIZED
                  000107c0    00000008     rts6700.lib : boot.obj (.stack)
                  000107c8    000007f8     --HOLE--

.cinit     0    00010fc0    00000504     
                  00010fc0    0000012c     csl6713.lib : csl_irq.obj (.cinit)
                  000110ec    00000004     --HOLE-- [fill = 0]
                  000110f0    000000bc     Inicializaciones.obj (.cinit)
                  000111ac    00000004     --HOLE-- [fill = 0]
                  000111b0    000000ac     main.obj (.cinit)
                  0001125c    00000004     --HOLE-- [fill = 0]
                  00011260    00000054     csl6713.lib : csl_mcbsp.obj (.cinit)
                  000112b4    00000004     --HOLE-- [fill = 0]
                  000112b8    0000004c                 : csl_timer.obj (.cinit)
                  00011304    00000004     --HOLE-- [fill = 0]
                  00011308    00000048     rts6700.lib : cos.obj (.cinit)
                  00011350    00000048                 : sin.obj (.cinit)
                  00011398    00000040                 : exp.obj (.cinit)
                  000113d8    00000040                 : log.obj (.cinit)
                  00011418    00000030     dsk6713_aic23_registers.obj (.cinit)
                  00011448    0000002c     rts6700.lib : exit.obj (.cinit)
                  00011474    00000004     --HOLE-- [fill = 0]
                  00011478    00000028     dsk6713_aic23_setfreq.obj (.cinit)
                  000114a0    0000000c     rts6700.lib : errno.obj (.cinit)
                  000114ac    00000004     --HOLE-- [fill = 0]
                  000114b0    00000009     sdmm.obj (.cinit)
                  000114b9    00000007     --HOLE-- [fill = 0]
                  000114c0    00000004     (.pad.cinit) [fill = 0]

.far       0    000114c8    000003ac     UNINITIALIZED
                  000114c8    000000f4     csl6713.lib : csl_irq.obj (.far)
                  000115bc    000000b0     Inicializaciones.obj (.far)
                  0001166c    00000004     Codec.obj (.far)
                  00011670    00000040     rts6700.lib : cos.obj (.far)
                  000116b0    00000040                 : sin.obj (.far)
                  000116f0    00000038     csl6713.lib : csl_mcbsp.obj (.far)
                  00011728    00000030     SD.obj (.far)
                  00011758    00000030     rts6700.lib : exp.obj (.far)
                  00011788    00000030                 : log.obj (.far)
                  000117b8    0000002c     main.obj (.far)
                  000117e4    00000028     dsk6713_aic23_registers.obj (.far)
                  0001180c    00000024     csl6713.lib : csl_timer.obj (.far)
                  00011830    00000020     dsk6713_aic23_setfreq.obj (.far)
                  00011850    0000000c     rts6700.lib : exit.obj (.far)
                  0001185c    00000008     dsk6713_aic23_opencodec.obj (.far)
                  00011864    00000006     ff.obj (.far)
                  0001186a    00000002     dsk6713.obj (.far)
                  0001186c    00000004     rts6700.lib : errno.obj (.far)
                  00011870    00000002     dsk6713_led.obj (.far)
                  00011872    00000002     sdmm.obj (.far)

.const     0    00011874    00000244     
                  00011874    00000101     rts6700.lib : ctype.obj (.const:.string:__ctypes_)
                  00011975    00000003     --HOLE-- [fill = 0]
                  00011978    00000080     ff.obj (.const:.string:_ExCvt)
                  000119f8    00000040     dsk6713_aic23_opencodec.obj (.const)
                  00011a38    00000023     rts6700.lib : _printfi.obj (.const:.string)
                  00011a5b    00000001     --HOLE-- [fill = 0]
                  00011a5c    00000020     SD.obj (.const:.string)
                  00011a7c    00000020     dsk6713.obj (.const)
                  00011a9c    0000001c     ff.obj (.const:.string)

.EXT_RAM   0    80000000    00e0000c     UNINITIALIZED
                  80000000    00e0000c     main.obj (.EXT_RAM)


GLOBAL SYMBOLS: SORTED ALPHABETICALLY BY Name 

address    name
--------   ----
00000220   $bss
00000220   .bss
00000220   .text
00010780   C$$EXIT
00005160   _Bit_reversal
00011660   _CodecEventId
000115bc   _Codec_Config
0001166c   _Codec_data
0000ef34   _Codec_in
00009148   _Codec_init
0000ee40   _Codec_out
00005c2c   _Corregir_RespFrec
0001185c   _DSK6713_AIC23_codeccontrolhandle
00011860   _DSK6713_AIC23_codecdatahandle
0000e47c   _DSK6713_AIC23_config
0000c520   _DSK6713_AIC23_openCodec
0000e458   _DSK6713_AIC23_rget
0000e3a0   _DSK6713_AIC23_rset
000100e0   _DSK6713_AIC23_setFreq
00010608   _DSK6713_DIP_get
00010600   _DSK6713_DIP_init
0000e660   _DSK6713_LED_init
0000e57c   _DSK6713_LED_off
0000e520   _DSK6713_LED_on
0000e5dc   _DSK6713_LED_toggle
0000a304   _DSK6713_getVersion
0000a360   _DSK6713_init
0000a294   _DSK6713_rget
0000a280   _DSK6713_rset
0001186a   _DSK6713_version
0000a1e0   _DSK6713_wait
0000a24c   _DSK6713_waitusec
00011658   _GPIO_Handler
00005920   _Generate_sweep
0000dbc0   _IRQ_map
00009018   _Interrup_init
00007d3c   _Load_sweep
00011604   _MCBSP0_to_SPI_Config
000115e4   _MCBSP1_to_Codec_Config
00011624   _MCBSP1_to_GPIO_Config
0000f7c0   _MCBSP_open
0000e0a0   _MCBSP_reset
0000f2c0   _MCBSP_start
00005284   _Normalize
000056c8   _Obtener_RI
0000ee80   _Play_codec
00008e24   _SD_init
00011668   _SPIEventId
00011654   _SPI_Handler
00011754   _Sample
00007a84   _Save_RI
00007820   _Save_sweep
0000e6a0   _TIMER_open
0000ef60   _TIMER_reset
00011664   _TimerEventId
00011644   _Timer_Config
0001165c   _Timer_Handler
00008d20   _Timer_init
000055cc   _Twiddle_init
00005570   _Vectores_reset
00011728   _WavHeader
000115b4   __IRQ_dispatchTable
000114f0   __IRQ_eventTable
000107a0   __IRQ_hookFetchPacket
00011574   __IRQ_intTable
00011720   __MCBSP_hDev0
00011724   __MCBSP_hDev1
00010fc0   __STACK_END
00000800   __STACK_SIZE
0001180c   __TIMER_deviceTable
0001182c   __TIMER_hBios
00011824   __TIMER_hDev0
00011828   __TIMER_hDev1
00000001   __TI_args_main
00010180   ___TI_cpp_init
00011858   ___TI_enable_exit_profile_output
ffffffff   ___TI_pprof_out_hndl
ffffffff   ___TI_prof_data_size
ffffffff   ___TI_prof_data_start
ffffffff   ___binit__
00000220   ___bss__
ffffffff   ___c_args__
00010fc0   ___cinit__
00000220   ___end__
000107c0   ___etext__
00010480   ___isinf
ffffffff   ___pinit__
00000220   ___text__
000106a0   __args_main
0000f3c0   __auto_init
0000fc20   __c6xabi_divu
0000e940   __c6xabi_strasgi
00011850   __cleanup_ptr
00011874   __ctypes_
00007f40   __divd
0000bba0   __divf
0000f5c0   __divli
0000fc20   __divu
0000d020   __divul
0000ae00   __divull
00011854   __dtors_ptr
0000fe60   __fixdli
00010200   __fltlid
0000e800   __frcmpyd_div
00010280   __llshl
000104e0   __llshru
0000ff00   __mpyll
00010740   __negll
0000fce0   __nround
00009860   __printfi
0000ffa0   __remli
000107c0   __stack
0000e940   __strasgi
000105a0   __subcull
000106e0   __trunc
00010780   _abort
0000ea80   _atoi
00010300   _c_int00
0000cf98   _c_int10
0000cda0   _c_int11
00006fc0   _check_error
0000fda0   _copy_in
0000b840   _cos
000117c4   _cuentas
00006c80   _disk_initialize
00006aa8   _disk_ioctl
00006998   _disk_read
00006100   _disk_status
00006748   _disk_write
0001186c   _errno
000117dc   _estado
0000fa60   _exit
0000d280   _exp
000050f4   _f_close
000050b4   _f_closedir
00004d7c   _f_getfree
00004828   _f_lseek
00004530   _f_mkdir
00004484   _f_mount
00003f6c   _f_open
00003e48   _f_opendir
00003a20   _f_read
00003944   _f_readdir
00003648   _f_rename
000033f4   _f_stat
0000316c   _f_sync
00002ee4   _f_truncate
00002d0c   _f_unlink
00000efc   _f_write
00005428   _fft
0000ebc0   _frexp
000117d4   _grabo_ruido
00011650   _hAIC23_handle
000052d8   _ifft
000117e0   _j
0000e220   _ldexp
80400004   _left_ch
000117bc   _left_ch_ptr
0000d4e0   _log
0000f080   _ltoa
00007160   _main
00010380   _memccpy
0000d980   _memcpy
0000f1a0   _memset
0000fb40   _modf
000117cc   _modo_anterior
000117d8   _n_medicion
000117c8   _puls_levantados
000117d0   _reproduciendo
80800008   _right_ch
000117c0   _right_ch_ptr
0000bee0   _sin
00010400   _sprintf
0000ed00   _sqrt
80000000   _sweep
000117b8   _sweep_ptr
80c0000c   _twiddles
00000020   _vector1
00000180   _vector12
000001a0   _vector13
000001c0   _vector14
000001e0   _vector15
00000040   _vector2
00000060   _vector3
00000080   _vector4
000000a0   _vector5
000000c0   _vector6
000000e0   _vector7
00000100   _vector8
00000120   _vector9
00000000   _vectors
ffffffff   binit
00010fc0   cinit
00000220   end
000107c0   etext
ffffffff   pinit


GLOBAL SYMBOLS: SORTED BY Symbol Address 

address    name
--------   ----
00000000   _vectors
00000001   __TI_args_main
00000020   _vector1
00000040   _vector2
00000060   _vector3
00000080   _vector4
000000a0   _vector5
000000c0   _vector6
000000e0   _vector7
00000100   _vector8
00000120   _vector9
00000180   _vector12
000001a0   _vector13
000001c0   _vector14
000001e0   _vector15
00000220   $bss
00000220   .bss
00000220   .text
00000220   ___bss__
00000220   ___end__
00000220   ___text__
00000220   end
00000800   __STACK_SIZE
00000efc   _f_write
00002d0c   _f_unlink
00002ee4   _f_truncate
0000316c   _f_sync
000033f4   _f_stat
00003648   _f_rename
00003944   _f_readdir
00003a20   _f_read
00003e48   _f_opendir
00003f6c   _f_open
00004484   _f_mount
00004530   _f_mkdir
00004828   _f_lseek
00004d7c   _f_getfree
000050b4   _f_closedir
000050f4   _f_close
00005160   _Bit_reversal
00005284   _Normalize
000052d8   _ifft
00005428   _fft
00005570   _Vectores_reset
000055cc   _Twiddle_init
000056c8   _Obtener_RI
00005920   _Generate_sweep
00005c2c   _Corregir_RespFrec
00006100   _disk_status
00006748   _disk_write
00006998   _disk_read
00006aa8   _disk_ioctl
00006c80   _disk_initialize
00006fc0   _check_error
00007160   _main
00007820   _Save_sweep
00007a84   _Save_RI
00007d3c   _Load_sweep
00007f40   __divd
00008d20   _Timer_init
00008e24   _SD_init
00009018   _Interrup_init
00009148   _Codec_init
00009860   __printfi
0000a1e0   _DSK6713_wait
0000a24c   _DSK6713_waitusec
0000a280   _DSK6713_rset
0000a294   _DSK6713_rget
0000a304   _DSK6713_getVersion
0000a360   _DSK6713_init
0000ae00   __divull
0000b840   _cos
0000bba0   __divf
0000bee0   _sin
0000c520   _DSK6713_AIC23_openCodec
0000cda0   _c_int11
0000cf98   _c_int10
0000d020   __divul
0000d280   _exp
0000d4e0   _log
0000d980   _memcpy
0000dbc0   _IRQ_map
0000e0a0   _MCBSP_reset
0000e220   _ldexp
0000e3a0   _DSK6713_AIC23_rset
0000e458   _DSK6713_AIC23_rget
0000e47c   _DSK6713_AIC23_config
0000e520   _DSK6713_LED_on
0000e57c   _DSK6713_LED_off
0000e5dc   _DSK6713_LED_toggle
0000e660   _DSK6713_LED_init
0000e6a0   _TIMER_open
0000e800   __frcmpyd_div
0000e940   __c6xabi_strasgi
0000e940   __strasgi
0000ea80   _atoi
0000ebc0   _frexp
0000ed00   _sqrt
0000ee40   _Codec_out
0000ee80   _Play_codec
0000ef34   _Codec_in
0000ef60   _TIMER_reset
0000f080   _ltoa
0000f1a0   _memset
0000f2c0   _MCBSP_start
0000f3c0   __auto_init
0000f5c0   __divli
0000f7c0   _MCBSP_open
0000fa60   _exit
0000fb40   _modf
0000fc20   __c6xabi_divu
0000fc20   __divu
0000fce0   __nround
0000fda0   _copy_in
0000fe60   __fixdli
0000ff00   __mpyll
0000ffa0   __remli
000100e0   _DSK6713_AIC23_setFreq
00010180   ___TI_cpp_init
00010200   __fltlid
00010280   __llshl
00010300   _c_int00
00010380   _memccpy
00010400   _sprintf
00010480   ___isinf
000104e0   __llshru
000105a0   __subcull
00010600   _DSK6713_DIP_init
00010608   _DSK6713_DIP_get
000106a0   __args_main
000106e0   __trunc
00010740   __negll
00010780   C$$EXIT
00010780   _abort
000107a0   __IRQ_hookFetchPacket
000107c0   ___etext__
000107c0   __stack
000107c0   etext
00010fc0   __STACK_END
00010fc0   ___cinit__
00010fc0   cinit
000114f0   __IRQ_eventTable
00011574   __IRQ_intTable
000115b4   __IRQ_dispatchTable
000115bc   _Codec_Config
000115e4   _MCBSP1_to_Codec_Config
00011604   _MCBSP0_to_SPI_Config
00011624   _MCBSP1_to_GPIO_Config
00011644   _Timer_Config
00011650   _hAIC23_handle
00011654   _SPI_Handler
00011658   _GPIO_Handler
0001165c   _Timer_Handler
00011660   _CodecEventId
00011664   _TimerEventId
00011668   _SPIEventId
0001166c   _Codec_data
00011720   __MCBSP_hDev0
00011724   __MCBSP_hDev1
00011728   _WavHeader
00011754   _Sample
000117b8   _sweep_ptr
000117bc   _left_ch_ptr
000117c0   _right_ch_ptr
000117c4   _cuentas
000117c8   _puls_levantados
000117cc   _modo_anterior
000117d0   _reproduciendo
000117d4   _grabo_ruido
000117d8   _n_medicion
000117dc   _estado
000117e0   _j
0001180c   __TIMER_deviceTable
00011824   __TIMER_hDev0
00011828   __TIMER_hDev1
0001182c   __TIMER_hBios
00011850   __cleanup_ptr
00011854   __dtors_ptr
00011858   ___TI_enable_exit_profile_output
0001185c   _DSK6713_AIC23_codeccontrolhandle
00011860   _DSK6713_AIC23_codecdatahandle
0001186a   _DSK6713_version
0001186c   _errno
00011874   __ctypes_
80000000   _sweep
80400004   _left_ch
80800008   _right_ch
80c0000c   _twiddles
ffffffff   ___TI_pprof_out_hndl
ffffffff   ___TI_prof_data_size
ffffffff   ___TI_prof_data_start
ffffffff   ___binit__
ffffffff   ___c_args__
ffffffff   ___pinit__
ffffffff   binit
ffffffff   pinit

[196 symbols]
